Certificate:
    Data:
        Version: 3 (0x2)
        Serial Number: 1 (0x1)
    Signature Algorithm: sha256WithRSAEncryption
        Issuer: C=CN, ST=Beijing, L=beijing, O=Founder, OU=electronic, CN=ids-test.fzyun.io/emailAddress=wangshuo3@founder.com.cn
        Validity
            Not Before: May 15 13:17:36 2018 GMT
            Not After : May 15 13:17:36 2019 GMT
        Subject: C=CN, ST=Beijing, O=Founder, OU=electronic, CN=ids-test.fzyun.io/emailAddress=wangshuo3@founder.com.cn
        Subject Public Key Info:
            Public Key Algorithm: rsaEncryption
                Public-Key: (1024 bit)
                Modulus:
                    00:be:8e:90:21:9b:c0:fc:39:1b:2f:57:03:6e:ad:
                    5f:31:c4:61:3a:81:49:e2:ab:3b:c0:8b:79:a0:f0:
                    2f:67:7a:02:48:cd:8d:81:4d:a5:e6:e1:e8:81:96:
                    54:ae:ae:2f:ea:c0:d2:44:59:a3:ce:b1:21:21:30:
                    82:f0:d6:48:2c:12:a4:09:8f:4a:e9:73:bc:35:4b:
                    12:87:97:cf:91:b8:b5:d1:26:be:d7:53:e9:64:9e:
                    18:05:7d:44:8c:c6:bd:e0:75:21:d0:6d:85:2b:6c:
                    b6:0e:fe:ad:d1:70:fc:9b:2e:10:36:41:34:6d:d4:
                    46:db:33:7f:50:52:cc:22:7b
                Exponent: 65537 (0x10001)
        X509v3 extensions:
            X509v3 Basic Constraints: 
                CA:FALSE
            Netscape Comment: 
                OpenSSL Generated Certificate
            X509v3 Subject Key Identifier: 
                AA:9A:BE:25:CE:6E:87:88:3A:56:80:00:77:59:E9:DC:13:10:60:8E
            X509v3 Authority Key Identifier: 
                keyid:C7:61:0B:20:47:40:6F:0F:D0:E9:BE:0F:0C:63:11:57:20:98:D6:C0

    Signature Algorithm: sha256WithRSAEncryption
         0f:a6:53:11:da:2b:cd:41:8c:06:a9:3a:a7:eb:d6:92:8d:e3:
         0c:b7:b4:09:20:15:da:88:e8:a0:7a:6c:f4:5f:36:1f:19:66:
         26:29:11:8b:49:17:9c:97:d8:af:f2:13:04:f4:69:09:b5:6e:
         fe:9c:5a:31:05:ba:1f:a9:02:bc:cb:20:d0:23:3e:36:05:80:
         32:b1:4c:1d:26:af:b5:f7:34:1f:a4:f3:11:73:d1:74:5c:b4:
         b1:53:b7:af:1b:c0:dc:e6:dc:bc:04:e9:bb:0e:93:20:f8:52:
         d1:40:66:e7:1b:47:ed:06:f4:9c:69:ac:e6:57:a8:74:4c:1f:
         d9:4d
-----BEGIN CERTIFICATE-----
MIIDGzCCAoSgAwIBAgIBATANBgkqhkiG9w0BAQsFADCBnTELMAkGA1UEBhMCQ04x
EDAOBgNVBAgMB0JlaWppbmcxEDAOBgNVBAcMB2JlaWppbmcxEDAOBgNVBAoMB0Zv
dW5kZXIxEzARBgNVBAsMCmVsZWN0cm9uaWMxGjAYBgNVBAMMEWlkcy10ZXN0LmZ6
eXVuLmlvMScwJQYJKoZIhvcNAQkBFhh3YW5nc2h1bzNAZm91bmRlci5jb20uY24w
HhcNMTgwNTE1MTMxNzM2WhcNMTkwNTE1MTMxNzM2WjCBizELMAkGA1UEBhMCQ04x
EDAOBgNVBAgMB0JlaWppbmcxEDAOBgNVBAoMB0ZvdW5kZXIxEzARBgNVBAsMCmVs
ZWN0cm9uaWMxGjAYBgNVBAMMEWlkcy10ZXN0LmZ6eXVuLmlvMScwJQYJKoZIhvcN
AQkBFhh3YW5nc2h1bzNAZm91bmRlci5jb20uY24wgZ8wDQYJKoZIhvcNAQEBBQAD
gY0AMIGJAoGBAL6OkCGbwPw5Gy9XA26tXzHEYTqBSeKrO8CLeaDwL2d6AkjNjYFN
pebh6IGWVK6uL+rA0kRZo86xISEwgvDWSCwSpAmPSulzvDVLEoeXz5G4tdEmvtdT
6WSeGAV9RIzGveB1IdBthStstg7+rdFw/JsuEDZBNG3URtszf1BSzCJ7AgMBAAGj
ezB5MAkGA1UdEwQCMAAwLAYJYIZIAYb4QgENBB8WHU9wZW5TU0wgR2VuZXJhdGVk
IENlcnRpZmljYXRlMB0GA1UdDgQWBBSqmr4lzm6HiDpWgAB3WencExBgjjAfBgNV
HSMEGDAWgBTHYQsgR0BvD9Dpvg8MYxFXIJjWwDANBgkqhkiG9w0BAQsFAAOBgQAP
plMR2ivNQYwGqTqn69aSjeMMt7QJIBXaiOigemz0XzYfGWYmKRGLSRecl9iv8hME
9GkJtW7+nFoxBbofqQK8yyDQIz42BYAysUwdJq+19zQfpPMRc9F0XLSxU7evG8Dc
5ty8BOm7DpMg+FLRQGbnG0ftBvScaazmV6h0TB/ZTQ==
-----END CERTIFICATE-----
